target datalayout = "e-m:e-p270:32:32-p271:32:32-p272:64:64-i64:64-i128:128-f80:128-n8:16:32:64-S128"
target triple = "x86_64-unknown-linux-gnu"

%"class.llvh::raw_pwrite_stream.base" = type { %"class.llvh::raw_ostream.base" }
%"class.llvh::raw_ostream.base" = type <{ ptr, ptr, ptr, ptr, i32 }>
%"class.llvh::SmallVectorBase" = type { ptr, i32, i32 }
%"class.llvh::raw_svector_ostream" = type { %"class.llvh::raw_pwrite_stream.base", ptr }

; Function Attrs: mustprogress nounwind uwtable
define linkonce_odr hidden noundef i64 @_ZNK4llvh15SmallVectorBase4sizeEv(ptr noundef nonnull align 8 dereferenceable(16) %this) #0 comdat align 2 {
entry:
  %this.addr = alloca ptr, align 8
  store ptr %this, ptr %this.addr, align 8
  %this1 = load ptr, ptr %this.addr, align 8
  %Size = getelementptr inbounds %"class.llvh::SmallVectorBase", ptr %this1, i32 0, i32 1
  %0 = load i32, ptr %Size, align 8
  %conv = zext i32 %0 to i64
  ret i64 %conv
}

; Function Attrs: mustprogress nounwind uwtable
define hidden noundef i64 @_ZNK4llvh19raw_svector_ostream11current_posEv(ptr noundef nonnull align 8 dereferenceable(48) %this) unnamed_addr #0 align 2 {
entry:
  %this.addr = alloca ptr, align 8
  store ptr %this, ptr %this.addr, align 8
  %this1 = load ptr, ptr %this.addr, align 8
  %OS = getelementptr inbounds %"class.llvh::raw_svector_ostream", ptr %this1, i32 0, i32 1
  %0 = load ptr, ptr %OS, align 8
  %call = call noundef i64 @_ZNK4llvh15SmallVectorBase4sizeEv(ptr noundef nonnull align 8 dereferenceable(16) %0)
  ret i64 %call
}