; Function Attrs: mustprogress nofree norecurse nosync nounwind willreturn memory(read, inaccessiblemem: none) uwtable
define hidden noundef i64 @_ZNK4llvh19raw_svector_ostream11current_posEv(ptr nocapture noundef nonnull readonly align 8 dereferenceable(48) %this) unnamed_addr #16 align 2 {
entry:
  %OS = getelementptr inbounds i8, ptr %this, i64 40
  %0 = load ptr, ptr %OS, align 8
  %Size.i = getelementptr inbounds i8, ptr %0, i64 8
  %1 = load i32, ptr %Size.i, align 8
  %conv.i = zext i32 %1 to i64
  ret i64 %conv.i
}